; Function Attrs: mustprogress uwtable
define void @_Z42grpc_fake_server_security_connector_createN9grpc_core13RefCountedPtrI23grpc_server_credentialsEE(ptr noalias nocapture writeonly sret(%"class.grpc_core::RefCountedPtr.4") align 8 %agg.result, ptr nocapture noundef %server_creds) local_unnamed_addr #3 personality ptr @__gxx_personality_v0 {
entry:
  %agg.tmp2.i.i = alloca %"class.grpc_core::RefCountedPtr.5", align 8
  %call.i = tail call noalias noundef nonnull dereferenceable(40) ptr @_Znwm(i64 noundef 40) #18, !noalias !7
  %0 = load ptr, ptr %server_creds, align 8, !noalias !7
  store ptr null, ptr %server_creds, align 8, !noalias !7
  call void @llvm.lifetime.start.p0(i64 8, ptr nonnull %agg.tmp2.i.i), !noalias !7
  store ptr %0, ptr %agg.tmp2.i.i, align 8, !noalias !7
  invoke void @_ZN30grpc_server_security_connectorC2ESt17basic_string_viewIcSt11char_traitsIcEEN9grpc_core13RefCountedPtrI23grpc_server_credentialsEE(ptr noundef nonnull align 8 dereferenceable(40) %call.i, i64 18, ptr nonnull @.str, ptr noundef nonnull %agg.tmp2.i.i)
          to label %invoke.cont.i.i unwind label %lpad.i.i, !noalias !7

invoke.cont.i.i:                                  ; preds = %entry
  %1 = load ptr, ptr %agg.tmp2.i.i, align 8, !noalias !7
  %cmp.not.i.i.i = icmp eq ptr %1, null
  br i1 %cmp.not.i.i.i, label %_ZN9grpc_core13RefCountedPtrIN12_GLOBAL__N_135grpc_fake_server_security_connectorEED2Ev.exit, label %if.then.i.i.i

if.then.i.i.i:                                    ; preds = %invoke.cont.i.i
  %refs_.i.i.i.i = getelementptr inbounds i8, ptr %1, i64 8
  %2 = atomicrmw sub ptr %refs_.i.i.i.i, i64 1 acq_rel, align 8, !noalias !7
  %cmp.i.i.i.i.i = icmp eq i64 %2, 1
  br i1 %cmp.i.i.i.i.i, label %if.then.i.i.i.i, label %_ZN9grpc_core13RefCountedPtrIN12_GLOBAL__N_135grpc_fake_server_security_connectorEED2Ev.exit

if.then.i.i.i.i:                                  ; preds = %if.then.i.i.i
  %vtable.i.i.i.i.i = load ptr, ptr %1, align 8, !noalias !7
  %vfn.i.i.i.i.i = getelementptr inbounds i8, ptr %vtable.i.i.i.i.i, i64 8
  %3 = load ptr, ptr %vfn.i.i.i.i.i, align 8, !noalias !7
  call void %3(ptr noundef nonnull align 8 dereferenceable(40) %1) #19, !noalias !7
  br label %_ZN9grpc_core13RefCountedPtrIN12_GLOBAL__N_135grpc_fake_server_security_connectorEED2Ev.exit

lpad.i.i:                                         ; preds = %entry
  %4 = landingpad { ptr, i32 }
          cleanup
  %5 = load ptr, ptr %agg.tmp2.i.i, align 8, !noalias !7
  %cmp.not.i1.i.i = icmp eq ptr %5, null
  br i1 %cmp.not.i1.i.i, label %_ZN9grpc_core13RefCountedPtrI23grpc_server_credentialsED2Ev.exit9.i, label %if.then.i2.i.i

if.then.i2.i.i:                                   ; preds = %lpad.i.i
  %refs_.i.i3.i.i = getelementptr inbounds i8, ptr %5, i64 8
  %6 = atomicrmw sub ptr %refs_.i.i3.i.i, i64 1 acq_rel, align 8, !noalias !7
  %cmp.i.i.i4.i.i = icmp eq i64 %6, 1
  br i1 %cmp.i.i.i4.i.i, label %if.then.i.i5.i.i, label %_ZN9grpc_core13RefCountedPtrI23grpc_server_credentialsED2Ev.exit9.i

if.then.i.i5.i.i:                                 ; preds = %if.then.i2.i.i
  %vtable.i.i.i6.i.i = load ptr, ptr %5, align 8, !noalias !7
  %vfn.i.i.i7.i.i = getelementptr inbounds i8, ptr %vtable.i.i.i6.i.i, i64 8
  %7 = load ptr, ptr %vfn.i.i.i7.i.i, align 8, !noalias !7
  call void %7(ptr noundef nonnull align 8 dereferenceable(40) %5) #19, !noalias !7
  br label %_ZN9grpc_core13RefCountedPtrI23grpc_server_credentialsED2Ev.exit9.i

_ZN9grpc_core13RefCountedPtrI23grpc_server_credentialsED2Ev.exit9.i: ; preds = %if.then.i.i5.i.i, %if.then.i2.i.i, %lpad.i.i
  call void @_ZdlPv(ptr noundef nonnull %call.i) #20, !noalias !7
  resume { ptr, i32 } %4

_ZN9grpc_core13RefCountedPtrIN12_GLOBAL__N_135grpc_fake_server_security_connectorEED2Ev.exit: ; preds = %if.then.i.i.i.i, %if.then.i.i.i, %invoke.cont.i.i
  store ptr getelementptr inbounds ({ [9 x ptr] }, ptr @_ZTVN12_GLOBAL__N_135grpc_fake_server_security_connectorE, i64 0, i32 0, i64 2), ptr %call.i, align 8, !noalias !7
  call void @llvm.lifetime.end.p0(i64 8, ptr nonnull %agg.tmp2.i.i), !noalias !7
  store ptr %call.i, ptr %agg.result, align 8
  ret void
}